target datalayout = "e-m:e-p270:32:32-p271:32:32-p272:64:64-i64:64-i128:128-f80:128-n8:16:32:64-S128"
target triple = "x86_64-pc-linux-gnu"

%struct.lua_State = type { %struct.GCRef, i8, i8, i8, i8, %struct.MRef, %struct.GCRef, ptr, ptr, %struct.MRef, %struct.MRef, %struct.GCRef, %struct.GCRef, ptr, i32 }
%struct.MRef = type { i64 }
%struct.GCRef = type { i64 }
%union.TValue = type { i64 }

; Function Attrs: alwaysinline nounwind uwtable
define internal void @setintV(ptr noundef %0, i32 noundef %1) #3 {
  %3 = alloca ptr, align 8
  %4 = alloca i32, align 4
  store ptr %0, ptr %3, align 8, !tbaa !25
  store i32 %1, ptr %4, align 4, !tbaa !30
  %5 = load i32, ptr %4, align 4, !tbaa !30
  %6 = sitofp i32 %5 to double
  %7 = load ptr, ptr %3, align 8, !tbaa !25
  store double %6, ptr %7, align 8, !tbaa !22
  ret void
}

; Function Attrs: nounwind uwtable
define internal i32 @lj_ffh_string_sub(ptr noundef %0) #0 {
  %2 = alloca ptr, align 8
  store ptr %0, ptr %2, align 8, !tbaa !4
  %3 = load ptr, ptr %2, align 8, !tbaa !4
  %4 = call ptr @lj_lib_checkstr(ptr noundef %3, i32 noundef 1)
  %5 = load ptr, ptr %2, align 8, !tbaa !4
  %6 = call i32 @lj_lib_checkint(ptr noundef %5, i32 noundef 2)
  %7 = load ptr, ptr %2, align 8, !tbaa !4
  %8 = getelementptr inbounds nuw %struct.lua_State, ptr %7, i32 0, i32 7
  %9 = load ptr, ptr %8, align 8, !tbaa !33
  %10 = getelementptr inbounds %union.TValue, ptr %9, i64 2
  %11 = load ptr, ptr %2, align 8, !tbaa !4
  %12 = call i32 @lj_lib_optint(ptr noundef %11, i32 noundef 3, i32 noundef -1)
  call void @setintV(ptr noundef %10, i32 noundef %12)
  ret i32 0
}