; Function Attrs: nounwind uwtable
define internal noundef i32 @lj_ffh_string_sub(ptr noundef %0) #0 {
  %2 = tail call ptr @lj_lib_checkstr(ptr noundef %0, i32 noundef 1) #7
  %3 = tail call i32 @lj_lib_checkint(ptr noundef %0, i32 noundef 2) #7
  %4 = getelementptr inbounds nuw i8, ptr %0, i64 32
  %5 = load ptr, ptr %4, align 8, !tbaa !22
  %6 = getelementptr inbounds nuw i8, ptr %5, i64 16
  %7 = tail call i32 @lj_lib_optint(ptr noundef %0, i32 noundef 3, i32 noundef -1) #7
  %8 = sitofp i32 %7 to double
  store double %8, ptr %6, align 8, !tbaa !16
  ret i32 0
}